target datalayout = "e-m:e-p270:32:32-p271:32:32-p272:64:64-i64:64-i128:128-f80:128-n8:16:32:64-S128"
target triple = "x86_64-pc-linux-gnu"

%struct.AVCodecContext = type { ptr, i32, i32, ptr, i32, i32, ptr, ptr, ptr, i64, i32, i32, ptr, i32, %struct.AVRational, %struct.AVRational, %struct.AVRational, i32, i32, i32, i32, i32, %struct.AVRational, i32, i32, i32, i32, i32, i32, i32, i32, i32, i32, i32, ptr, ptr, i32, float, float, float, float, float, float, float, float, float, i32, i32, i32, i32, i32, i32, i32, i32, i32, i32, i32, i32, ptr, ptr, ptr, i32, i32, i32, i32, i32, i32, i32, i32, i32, i32, %struct.AVChannelLayout, i32, i32, i32, i32, i32, i32, i32, i32, ptr, i32, i32, i32, float, float, i32, i32, i32, i32, i32, ptr, i64, i64, float, float, i32, i32, ptr, ptr, i32, i32, i32, i32, i32, ptr, ptr, ptr, ptr, i32, i32, [8 x i64], i32, i32, i32, i32, i32, i32, i32, ptr, ptr, i32, i32, i32, i32, i32, i32, i32, i32, i32, i32, ptr, ptr, i32, i32, ptr, ptr, ptr, ptr, i32, i32, i64, i32, i32, i64, ptr, i64, ptr, i32, ptr, i32 }
%struct.AVRational = type { i32, i32 }
%struct.AVChannelLayout = type { i32, i32, %union.anon.0, ptr }
%union.anon.0 = type { i64 }
%struct.AVPacket = type { ptr, i64, i64, ptr, i32, i32, i32, ptr, i32, i64, i64, ptr, ptr, %struct.AVRational }
%struct.AVFrame = type { [8 x ptr], [8 x i32], ptr, i32, i32, i32, i32, i32, %struct.AVRational, i64, i64, %struct.AVRational, i32, ptr, i32, i32, [8 x ptr], ptr, i32, ptr, i32, i32, i32, i32, i32, i32, i32, i64, ptr, i32, ptr, ptr, i64, i64, i64, i64, ptr, %struct.AVChannelLayout, i64 }

; Function Attrs: nounwind uwtable
define internal i32 @y41p_encode_frame(ptr noundef %0, ptr noundef %1, ptr noundef %2, ptr noundef %3) #1 {
  %5 = alloca i32, align 4
  %6 = alloca ptr, align 8
  %7 = alloca ptr, align 8
  %8 = alloca ptr, align 8
  %9 = alloca ptr, align 8
  %10 = alloca ptr, align 8
  %11 = alloca ptr, align 8
  %12 = alloca ptr, align 8
  %13 = alloca ptr, align 8
  %14 = alloca i32, align 4
  %15 = alloca i32, align 4
  %16 = alloca i32, align 4
  %17 = alloca i32, align 4
  store ptr %0, ptr %6, align 8, !tbaa !4
  store ptr %1, ptr %7, align 8, !tbaa !31
  store ptr %2, ptr %8, align 8, !tbaa !33
  store ptr %3, ptr %9, align 8, !tbaa !35
  call void @llvm.lifetime.start.p0(i64 8, ptr %10) #4
  call void @llvm.lifetime.start.p0(i64 8, ptr %11) #4
  call void @llvm.lifetime.start.p0(i64 8, ptr %12) #4
  call void @llvm.lifetime.start.p0(i64 8, ptr %13) #4
  call void @llvm.lifetime.start.p0(i64 4, ptr %14) #4
  call void @llvm.lifetime.start.p0(i64 4, ptr %15) #4
  call void @llvm.lifetime.start.p0(i64 4, ptr %16) #4
  %18 = load ptr, ptr %6, align 8, !tbaa !4
  %19 = load ptr, ptr %7, align 8, !tbaa !31
  %20 = load ptr, ptr %6, align 8, !tbaa !4
  %21 = getelementptr inbounds nuw %struct.AVCodecContext, ptr %20, i32 0, i32 18
  %22 = load i32, ptr %21, align 8, !tbaa !9
  %23 = load ptr, ptr %6, align 8, !tbaa !4
  %24 = getelementptr inbounds nuw %struct.AVCodecContext, ptr %23, i32 0, i32 19
  %25 = load i32, ptr %24, align 4, !tbaa !36
  %26 = mul nsw i32 %22, %25
  %27 = sitofp i32 %26 to double
  %28 = fmul nsz double %27, 1.500000e+00
  %29 = fptosi double %28 to i64
  %30 = call i32 @ff_get_encode_buffer(ptr noundef %18, ptr noundef %19, i64 noundef %29, i32 noundef 0)
  store i32 %30, ptr %16, align 4, !tbaa !37
  %31 = load i32, ptr %16, align 4, !tbaa !37
  %32 = icmp slt i32 %31, 0
  br i1 %32, label %33, label %35

33:                                               ; preds = %4
  %34 = load i32, ptr %16, align 4, !tbaa !37
  store i32 %34, ptr %5, align 4
  store i32 1, ptr %17, align 4
  br label %159

35:                                               ; preds = %4
  %36 = load ptr, ptr %7, align 8, !tbaa !31
  %37 = getelementptr inbounds nuw %struct.AVPacket, ptr %36, i32 0, i32 3
  %38 = load ptr, ptr %37, align 8, !tbaa !38
  store ptr %38, ptr %10, align 8, !tbaa !40
  %39 = load ptr, ptr %6, align 8, !tbaa !4
  %40 = getelementptr inbounds nuw %struct.AVCodecContext, ptr %39, i32 0, i32 19
  %41 = load i32, ptr %40, align 4, !tbaa !36
  %42 = sub nsw i32 %41, 1
  store i32 %42, ptr %14, align 4, !tbaa !37
  br label %43

43:                                               ; preds = %154, %35
  %44 = load i32, ptr %14, align 4, !tbaa !37
  %45 = icmp sge i32 %44, 0
  br i1 %45, label %46, label %157

46:                                               ; preds = %43
  %47 = load ptr, ptr %8, align 8, !tbaa !33
  %48 = getelementptr inbounds nuw %struct.AVFrame, ptr %47, i32 0, i32 0
  %49 = getelementptr inbounds [8 x ptr], ptr %48, i64 0, i64 0
  %50 = load ptr, ptr %49, align 8, !tbaa !40
  %51 = load i32, ptr %14, align 4, !tbaa !37
  %52 = load ptr, ptr %8, align 8, !tbaa !33
  %53 = getelementptr inbounds nuw %struct.AVFrame, ptr %52, i32 0, i32 1
  %54 = getelementptr inbounds [8 x i32], ptr %53, i64 0, i64 0
  %55 = load i32, ptr %54, align 8, !tbaa !37
  %56 = mul nsw i32 %51, %55
  %57 = sext i32 %56 to i64
  %58 = getelementptr inbounds i8, ptr %50, i64 %57
  store ptr %58, ptr %11, align 8, !tbaa !40
  %59 = load ptr, ptr %8, align 8, !tbaa !33
  %60 = getelementptr inbounds nuw %struct.AVFrame, ptr %59, i32 0, i32 0
  %61 = getelementptr inbounds [8 x ptr], ptr %60, i64 0, i64 1
  %62 = load ptr, ptr %61, align 8, !tbaa !40
  %63 = load i32, ptr %14, align 4, !tbaa !37
  %64 = load ptr, ptr %8, align 8, !tbaa !33
  %65 = getelementptr inbounds nuw %struct.AVFrame, ptr %64, i32 0, i32 1
  %66 = getelementptr inbounds [8 x i32], ptr %65, i64 0, i64 1
  %67 = load i32, ptr %66, align 4, !tbaa !37
  %68 = mul nsw i32 %63, %67
  %69 = sext i32 %68 to i64
  %70 = getelementptr inbounds i8, ptr %62, i64 %69
  store ptr %70, ptr %12, align 8, !tbaa !40
  %71 = load ptr, ptr %8, align 8, !tbaa !33
  %72 = getelementptr inbounds nuw %struct.AVFrame, ptr %71, i32 0, i32 0
  %73 = getelementptr inbounds [8 x ptr], ptr %72, i64 0, i64 2
  %74 = load ptr, ptr %73, align 8, !tbaa !40
  %75 = load i32, ptr %14, align 4, !tbaa !37
  %76 = load ptr, ptr %8, align 8, !tbaa !33
  %77 = getelementptr inbounds nuw %struct.AVFrame, ptr %76, i32 0, i32 1
  %78 = getelementptr inbounds [8 x i32], ptr %77, i64 0, i64 2
  %79 = load i32, ptr %78, align 8, !tbaa !37
  %80 = mul nsw i32 %75, %79
  %81 = sext i32 %80 to i64
  %82 = getelementptr inbounds i8, ptr %74, i64 %81
  store ptr %82, ptr %13, align 8, !tbaa !40
  store i32 0, ptr %15, align 4, !tbaa !37
  br label %83

83:                                               ; preds = %150, %46
  %84 = load i32, ptr %15, align 4, !tbaa !37
  %85 = load ptr, ptr %6, align 8, !tbaa !4
  %86 = getelementptr inbounds nuw %struct.AVCodecContext, ptr %85, i32 0, i32 18
  %87 = load i32, ptr %86, align 8, !tbaa !9
  %88 = icmp slt i32 %84, %87
  br i1 %88, label %89, label %153

89:                                               ; preds = %83
  %90 = load ptr, ptr %12, align 8, !tbaa !40
  %91 = getelementptr inbounds nuw i8, ptr %90, i32 1
  store ptr %91, ptr %12, align 8, !tbaa !40
  %92 = load i8, ptr %90, align 1, !tbaa !41
  %93 = load ptr, ptr %10, align 8, !tbaa !40
  %94 = getelementptr inbounds nuw i8, ptr %93, i32 1
  store ptr %94, ptr %10, align 8, !tbaa !40
  store i8 %92, ptr %93, align 1, !tbaa !41
  %95 = load ptr, ptr %11, align 8, !tbaa !40
  %96 = getelementptr inbounds nuw i8, ptr %95, i32 1
  store ptr %96, ptr %11, align 8, !tbaa !40
  %97 = load i8, ptr %95, align 1, !tbaa !41
  %98 = load ptr, ptr %10, align 8, !tbaa !40
  %99 = getelementptr inbounds nuw i8, ptr %98, i32 1
  store ptr %99, ptr %10, align 8, !tbaa !40
  store i8 %97, ptr %98, align 1, !tbaa !41
  %100 = load ptr, ptr %13, align 8, !tbaa !40
  %101 = getelementptr inbounds nuw i8, ptr %100, i32 1
  store ptr %101, ptr %13, align 8, !tbaa !40
  %102 = load i8, ptr %100, align 1, !tbaa !41
  %103 = load ptr, ptr %10, align 8, !tbaa !40
  %104 = getelementptr inbounds nuw i8, ptr %103, i32 1
  store ptr %104, ptr %10, align 8, !tbaa !40
  store i8 %102, ptr %103, align 1, !tbaa !41
  %105 = load ptr, ptr %11, align 8, !tbaa !40
  %106 = getelementptr inbounds nuw i8, ptr %105, i32 1
  store ptr %106, ptr %11, align 8, !tbaa !40
  %107 = load i8, ptr %105, align 1, !tbaa !41
  %108 = load ptr, ptr %10, align 8, !tbaa !40
  %109 = getelementptr inbounds nuw i8, ptr %108, i32 1
  store ptr %109, ptr %10, align 8, !tbaa !40
  store i8 %107, ptr %108, align 1, !tbaa !41
  %110 = load ptr, ptr %12, align 8, !tbaa !40
  %111 = getelementptr inbounds nuw i8, ptr %110, i32 1
  store ptr %111, ptr %12, align 8, !tbaa !40
  %112 = load i8, ptr %110, align 1, !tbaa !41
  %113 = load ptr, ptr %10, align 8, !tbaa !40
  %114 = getelementptr inbounds nuw i8, ptr %113, i32 1
  store ptr %114, ptr %10, align 8, !tbaa !40
  store i8 %112, ptr %113, align 1, !tbaa !41
  %115 = load ptr, ptr %11, align 8, !tbaa !40
  %116 = getelementptr inbounds nuw i8, ptr %115, i32 1
  store ptr %116, ptr %11, align 8, !tbaa !40
  %117 = load i8, ptr %115, align 1, !tbaa !41
  %118 = load ptr, ptr %10, align 8, !tbaa !40
  %119 = getelementptr inbounds nuw i8, ptr %118, i32 1
  store ptr %119, ptr %10, align 8, !tbaa !40
  store i8 %117, ptr %118, align 1, !tbaa !41
  %120 = load ptr, ptr %13, align 8, !tbaa !40
  %121 = getelementptr inbounds nuw i8, ptr %120, i32 1
  store ptr %121, ptr %13, align 8, !tbaa !40
  %122 = load i8, ptr %120, align 1, !tbaa !41
  %123 = load ptr, ptr %10, align 8, !tbaa !40
  %124 = getelementptr inbounds nuw i8, ptr %123, i32 1
  store ptr %124, ptr %10, align 8, !tbaa !40
  store i8 %122, ptr %123, align 1, !tbaa !41
  %125 = load ptr, ptr %11, align 8, !tbaa !40
  %126 = getelementptr inbounds nuw i8, ptr %125, i32 1
  store ptr %126, ptr %11, align 8, !tbaa !40
  %127 = load i8, ptr %125, align 1, !tbaa !41
  %128 = load ptr, ptr %10, align 8, !tbaa !40
  %129 = getelementptr inbounds nuw i8, ptr %128, i32 1
  store ptr %129, ptr %10, align 8, !tbaa !40
  store i8 %127, ptr %128, align 1, !tbaa !41
  %130 = load ptr, ptr %11, align 8, !tbaa !40
  %131 = getelementptr inbounds nuw i8, ptr %130, i32 1
  store ptr %131, ptr %11, align 8, !tbaa !40
  %132 = load i8, ptr %130, align 1, !tbaa !41
  %133 = load ptr, ptr %10, align 8, !tbaa !40
  %134 = getelementptr inbounds nuw i8, ptr %133, i32 1
  store ptr %134, ptr %10, align 8, !tbaa !40
  store i8 %132, ptr %133, align 1, !tbaa !41
  %135 = load ptr, ptr %11, align 8, !tbaa !40
  %136 = getelementptr inbounds nuw i8, ptr %135, i32 1
  store ptr %136, ptr %11, align 8, !tbaa !40
  %137 = load i8, ptr %135, align 1, !tbaa !41
  %138 = load ptr, ptr %10, align 8, !tbaa !40
  %139 = getelementptr inbounds nuw i8, ptr %138, i32 1
  store ptr %139, ptr %10, align 8, !tbaa !40
  store i8 %137, ptr %138, align 1, !tbaa !41
  %140 = load ptr, ptr %11, align 8, !tbaa !40
  %141 = getelementptr inbounds nuw i8, ptr %140, i32 1
  store ptr %141, ptr %11, align 8, !tbaa !40
  %142 = load i8, ptr %140, align 1, !tbaa !41
  %143 = load ptr, ptr %10, align 8, !tbaa !40
  %144 = getelementptr inbounds nuw i8, ptr %143, i32 1
  store ptr %144, ptr %10, align 8, !tbaa !40
  store i8 %142, ptr %143, align 1, !tbaa !41
  %145 = load ptr, ptr %11, align 8, !tbaa !40
  %146 = getelementptr inbounds nuw i8, ptr %145, i32 1
  store ptr %146, ptr %11, align 8, !tbaa !40
  %147 = load i8, ptr %145, align 1, !tbaa !41
  %148 = load ptr, ptr %10, align 8, !tbaa !40
  %149 = getelementptr inbounds nuw i8, ptr %148, i32 1
  store ptr %149, ptr %10, align 8, !tbaa !40
  store i8 %147, ptr %148, align 1, !tbaa !41
  br label %150

150:                                              ; preds = %89
  %151 = load i32, ptr %15, align 4, !tbaa !37
  %152 = add nsw i32 %151, 8
  store i32 %152, ptr %15, align 4, !tbaa !37
  br label %83, !llvm.loop !42

153:                                              ; preds = %83
  br label %154

154:                                              ; preds = %153
  %155 = load i32, ptr %14, align 4, !tbaa !37
  %156 = add nsw i32 %155, -1
  store i32 %156, ptr %14, align 4, !tbaa !37
  br label %43, !llvm.loop !44

157:                                              ; preds = %43
  %158 = load ptr, ptr %9, align 8, !tbaa !35
  store i32 1, ptr %158, align 4, !tbaa !37
  store i32 0, ptr %5, align 4
  store i32 1, ptr %17, align 4
  br label %159

159:                                              ; preds = %157, %33
  call void @llvm.lifetime.end.p0(i64 4, ptr %16) #4
  call void @llvm.lifetime.end.p0(i64 4, ptr %15) #4
  call void @llvm.lifetime.end.p0(i64 4, ptr %14) #4
  call void @llvm.lifetime.end.p0(i64 8, ptr %13) #4
  call void @llvm.lifetime.end.p0(i64 8, ptr %12) #4
  call void @llvm.lifetime.end.p0(i64 8, ptr %11) #4
  call void @llvm.lifetime.end.p0(i64 8, ptr %10) #4
  %160 = load i32, ptr %5, align 4
  ret i32 %160
}