; Function Attrs: nounwind uwtable
define internal range(i32 -2147483648, 1) i32 @y41p_encode_frame(ptr noundef %0, ptr noundef %1, ptr noundef readonly captures(none) %2, ptr noundef writeonly captures(none) %3) #1 {
  %5 = getelementptr inbounds nuw i8, ptr %0, i64 112
  %6 = load i32, ptr %5, align 8, !tbaa !4
  %7 = getelementptr inbounds nuw i8, ptr %0, i64 116
  %8 = load i32, ptr %7, align 4, !tbaa !29
  %9 = mul nsw i32 %8, %6
  %10 = sitofp i32 %9 to double
  %11 = fmul nsz double %10, 1.500000e+00
  %12 = fptosi double %11 to i64
  %13 = tail call i32 @ff_get_encode_buffer(ptr noundef %0, ptr noundef %1, i64 noundef %12, i32 noundef 0) #3
  %14 = icmp slt i32 %13, 0
  br i1 %14, label %85, label %15

15:                                               ; preds = %4
  %16 = load i32, ptr %7, align 4, !tbaa !29
  %17 = icmp sgt i32 %16, 0
  br i1 %17, label %.lr.ph62, label %._crit_edge

.lr.ph62:                                         ; preds = %15
  %18 = getelementptr inbounds nuw i8, ptr %2, i64 64
  %19 = getelementptr inbounds nuw i8, ptr %2, i64 8
  %20 = getelementptr inbounds nuw i8, ptr %2, i64 68
  %21 = getelementptr inbounds nuw i8, ptr %2, i64 16
  %22 = getelementptr inbounds nuw i8, ptr %2, i64 72
  %23 = load i32, ptr %5, align 8, !tbaa !4
  %24 = icmp sgt i32 %23, 0
  br i1 %24, label %.lr.ph62.split.preheader, label %._crit_edge

.lr.ph62.split.preheader:                         ; preds = %.lr.ph62
  %25 = getelementptr inbounds nuw i8, ptr %1, i64 24
  %26 = load ptr, ptr %25, align 8, !tbaa !30
  br label %.lr.ph62.split

.loopexit:                                        ; preds = %.lr.ph, %.lr.ph62.split
  %27 = phi i32 [ %29, %.lr.ph62.split ], [ %83, %.lr.ph ]
  %.1.lcssa = phi ptr [ %.05260, %.lr.ph62.split ], [ %81, %.lr.ph ]
  %28 = icmp samesign ugt i32 %.04861.in, 1
  br i1 %28, label %.lr.ph62.split, label %._crit_edge, !llvm.loop !32

.lr.ph62.split:                                   ; preds = %.lr.ph62.split.preheader, %.loopexit
  %29 = phi i32 [ %27, %.loopexit ], [ %23, %.lr.ph62.split.preheader ]
  %.04861.in = phi i32 [ %.04861, %.loopexit ], [ %16, %.lr.ph62.split.preheader ]
  %.05260 = phi ptr [ %.1.lcssa, %.loopexit ], [ %26, %.lr.ph62.split.preheader ]
  %.04861 = add nsw i32 %.04861.in, -1
  %30 = icmp sgt i32 %29, 0
  br i1 %30, label %.lr.ph.preheader, label %.loopexit

.lr.ph.preheader:                                 ; preds = %.lr.ph62.split
  %31 = load ptr, ptr %21, align 8, !tbaa !35
  %32 = load i32, ptr %22, align 8, !tbaa !36
  %33 = mul nsw i32 %32, %.04861
  %34 = sext i32 %33 to i64
  %35 = getelementptr inbounds i8, ptr %31, i64 %34
  %36 = load ptr, ptr %19, align 8, !tbaa !35
  %37 = load i32, ptr %20, align 4, !tbaa !36
  %38 = mul nsw i32 %37, %.04861
  %39 = sext i32 %38 to i64
  %40 = getelementptr inbounds i8, ptr %36, i64 %39
  %41 = load ptr, ptr %2, align 8, !tbaa !35
  %42 = load i32, ptr %18, align 8, !tbaa !36
  %43 = mul nsw i32 %42, %.04861
  %44 = sext i32 %43 to i64
  %45 = getelementptr inbounds i8, ptr %41, i64 %44
  br label %.lr.ph

.lr.ph:                                           ; preds = %.lr.ph.preheader, %.lr.ph
  %.04758 = phi i32 [ %82, %.lr.ph ], [ 0, %.lr.ph.preheader ]
  %.04957 = phi ptr [ %64, %.lr.ph ], [ %35, %.lr.ph.preheader ]
  %.05056 = phi ptr [ %58, %.lr.ph ], [ %40, %.lr.ph.preheader ]
  %.05155 = phi ptr [ %79, %.lr.ph ], [ %45, %.lr.ph.preheader ]
  %.154 = phi ptr [ %81, %.lr.ph ], [ %.05260, %.lr.ph.preheader ]
  %46 = getelementptr inbounds nuw i8, ptr %.05056, i64 1
  %47 = load i8, ptr %.05056, align 1, !tbaa !37
  %48 = getelementptr inbounds nuw i8, ptr %.154, i64 1
  store i8 %47, ptr %.154, align 1, !tbaa !37
  %49 = getelementptr inbounds nuw i8, ptr %.05155, i64 1
  %50 = load i8, ptr %.05155, align 1, !tbaa !37
  %51 = getelementptr inbounds nuw i8, ptr %.154, i64 2
  store i8 %50, ptr %48, align 1, !tbaa !37
  %52 = getelementptr inbounds nuw i8, ptr %.04957, i64 1
  %53 = load i8, ptr %.04957, align 1, !tbaa !37
  %54 = getelementptr inbounds nuw i8, ptr %.154, i64 3
  store i8 %53, ptr %51, align 1, !tbaa !37
  %55 = getelementptr inbounds nuw i8, ptr %.05155, i64 2
  %56 = load i8, ptr %49, align 1, !tbaa !37
  %57 = getelementptr inbounds nuw i8, ptr %.154, i64 4
  store i8 %56, ptr %54, align 1, !tbaa !37
  %58 = getelementptr inbounds nuw i8, ptr %.05056, i64 2
  %59 = load i8, ptr %46, align 1, !tbaa !37
  %60 = getelementptr inbounds nuw i8, ptr %.154, i64 5
  store i8 %59, ptr %57, align 1, !tbaa !37
  %61 = getelementptr inbounds nuw i8, ptr %.05155, i64 3
  %62 = load i8, ptr %55, align 1, !tbaa !37
  %63 = getelementptr inbounds nuw i8, ptr %.154, i64 6
  store i8 %62, ptr %60, align 1, !tbaa !37
  %64 = getelementptr inbounds nuw i8, ptr %.04957, i64 2
  %65 = load i8, ptr %52, align 1, !tbaa !37
  %66 = getelementptr inbounds nuw i8, ptr %.154, i64 7
  store i8 %65, ptr %63, align 1, !tbaa !37
  %67 = getelementptr inbounds nuw i8, ptr %.05155, i64 4
  %68 = load i8, ptr %61, align 1, !tbaa !37
  %69 = getelementptr inbounds nuw i8, ptr %.154, i64 8
  store i8 %68, ptr %66, align 1, !tbaa !37
  %70 = getelementptr inbounds nuw i8, ptr %.05155, i64 5
  %71 = load i8, ptr %67, align 1, !tbaa !37
  %72 = getelementptr inbounds nuw i8, ptr %.154, i64 9
  store i8 %71, ptr %69, align 1, !tbaa !37
  %73 = getelementptr inbounds nuw i8, ptr %.05155, i64 6
  %74 = load i8, ptr %70, align 1, !tbaa !37
  %75 = getelementptr inbounds nuw i8, ptr %.154, i64 10
  store i8 %74, ptr %72, align 1, !tbaa !37
  %76 = getelementptr inbounds nuw i8, ptr %.05155, i64 7
  %77 = load i8, ptr %73, align 1, !tbaa !37
  %78 = getelementptr inbounds nuw i8, ptr %.154, i64 11
  store i8 %77, ptr %75, align 1, !tbaa !37
  %79 = getelementptr inbounds nuw i8, ptr %.05155, i64 8
  %80 = load i8, ptr %76, align 1, !tbaa !37
  %81 = getelementptr inbounds nuw i8, ptr %.154, i64 12
  store i8 %80, ptr %78, align 1, !tbaa !37
  %82 = add nuw nsw i32 %.04758, 8
  %83 = load i32, ptr %5, align 8, !tbaa !4
  %84 = icmp slt i32 %82, %83
  br i1 %84, label %.lr.ph, label %.loopexit, !llvm.loop !38

._crit_edge:                                      ; preds = %.loopexit, %.lr.ph62, %15
  store i32 1, ptr %3, align 4, !tbaa !36
  br label %85

85:                                               ; preds = %4, %._crit_edge
  %.0 = phi i32 [ 0, %._crit_edge ], [ %13, %4 ]
  ret i32 %.0
}